target datalayout = "e-m:e-p270:32:32-p271:32:32-p272:64:64-i64:64-i128:128-f80:128-n8:16:32:64-S128"
target triple = "x86_64-pc-linux-gnu"

@hf_x11_minor_opcode = internal global i32 0, align 4
@hf_x11_unused = internal global i32 0, align 4
@hf_x11_xinput_KeyPress_deviceid = internal global i32 0, align 4
@hf_x11_xinput_KeyPress_time = internal global i32 0, align 4
@hf_x11_xinput_KeyPress_detail = internal global i32 0, align 4
@hf_x11_xinput_KeyPress_root = internal global i32 0, align 4
@hf_x11_xinput_KeyPress_event = internal global i32 0, align 4
@hf_x11_xinput_KeyPress_child = internal global i32 0, align 4
@hf_x11_xinput_KeyPress_root_x = internal global i32 0, align 4
@hf_x11_xinput_KeyPress_root_y = internal global i32 0, align 4
@hf_x11_xinput_KeyPress_event_x = internal global i32 0, align 4
@hf_x11_xinput_KeyPress_event_y = internal global i32 0, align 4
@hf_x11_xinput_KeyPress_buttons_len = internal global i32 0, align 4
@hf_x11_xinput_KeyPress_valuators_len = internal global i32 0, align 4
@hf_x11_xinput_KeyPress_sourceid = internal global i32 0, align 4
@hf_x11_xinput_KeyPress_flags = internal global i32 0, align 4
@hf_x11_xinput_KeyPress_button_mask = internal global i32 0, align 4
@hf_x11_xinput_KeyPress_button_mask_item = internal global i32 0, align 4
@hf_x11_xinput_KeyPress_valuator_mask = internal global i32 0, align 4
@hf_x11_xinput_KeyPress_valuator_mask_item = internal global i32 0, align 4
@ett_x11_list_of_card32 = internal global i32 0, align 4
@ett_x11_rectangle = internal global i32 0, align 4
@.str.15421 = private unnamed_addr constant [13 x i8] c"KeyPress (2)\00", align 1
@xinputKeyPress.flags_bits = internal constant [2 x ptr] [ptr @hf_x11_xinput_KeyPress_flags_mask_KeyRepeat, ptr null], align 16

; Function Attrs: null_pointer_is_valid sspstrong uwtable
define internal void @listOfCard32(ptr noundef %0, ptr noundef %1, ptr noundef %2, i32 noundef %3, i32 noundef %4, i32 noundef %5, i32 noundef %6) #1 {
  %8 = alloca ptr, align 8
  %9 = alloca ptr, align 8
  %10 = alloca ptr, align 8
  %11 = alloca i32, align 4
  %12 = alloca i32, align 4
  %13 = alloca i32, align 4
  %14 = alloca i32, align 4
  %15 = alloca ptr, align 8
  %16 = alloca ptr, align 8
  store ptr %0, ptr %8, align 8
  store ptr %1, ptr %9, align 8
  store ptr %2, ptr %10, align 8
  store i32 %3, ptr %11, align 4
  store i32 %4, ptr %12, align 4
  store i32 %5, ptr %13, align 4
  store i32 %6, ptr %14, align 4
  call void @llvm.lifetime.start.p0(i64 8, ptr %15) #11
  %17 = load ptr, ptr %10, align 8
  %18 = load i32, ptr %11, align 4
  %19 = load ptr, ptr %8, align 8
  %20 = load ptr, ptr %9, align 8
  %21 = load i32, ptr %20, align 4
  %22 = load i32, ptr %13, align 4
  %23 = mul i32 %22, 4
  %24 = load i32, ptr %14, align 4
  %25 = call ptr @proto_tree_add_item(ptr noundef %17, i32 noundef %18, ptr noundef %19, i32 noundef %21, i32 noundef %23, i32 noundef %24)
  store ptr %25, ptr %15, align 8
  call void @llvm.lifetime.start.p0(i64 8, ptr %16) #11
  %26 = load ptr, ptr %15, align 8
  %27 = load i32, ptr @ett_x11_list_of_card32, align 4
  %28 = call ptr @proto_item_add_subtree(ptr noundef %26, i32 noundef %27)
  store ptr %28, ptr %16, align 8
  br label %29

29:                                               ; preds = %33, %7
  %30 = load i32, ptr %13, align 4
  %31 = add i32 %30, -1
  store i32 %31, ptr %13, align 4
  %32 = icmp ne i32 %30, 0
  br i1 %32, label %33, label %44

33:                                               ; preds = %29
  %34 = load ptr, ptr %16, align 8
  %35 = load i32, ptr %12, align 4
  %36 = load ptr, ptr %8, align 8
  %37 = load ptr, ptr %9, align 8
  %38 = load i32, ptr %37, align 4
  %39 = load i32, ptr %14, align 4
  %40 = call ptr @proto_tree_add_item(ptr noundef %34, i32 noundef %35, ptr noundef %36, i32 noundef %38, i32 noundef 4, i32 noundef %39)
  %41 = load ptr, ptr %9, align 8
  %42 = load i32, ptr %41, align 4
  %43 = add i32 %42, 4
  store i32 %43, ptr %41, align 4
  br label %29, !llvm.loop !45

44:                                               ; preds = %29
  call void @llvm.lifetime.end.p0(i64 8, ptr %16) #11
  call void @llvm.lifetime.end.p0(i64 8, ptr %15) #11
  ret void
}

; Function Attrs: null_pointer_is_valid sspstrong uwtable
define internal void @xinputKeyPress(ptr noundef %0, i32 noundef %1, ptr noundef %2, ptr noundef %3, i32 noundef %4) #1 {
  %6 = alloca ptr, align 8
  %7 = alloca i32, align 4
  %8 = alloca ptr, align 8
  %9 = alloca ptr, align 8
  %10 = alloca i32, align 4
  %11 = alloca i32, align 4
  %12 = alloca i32, align 4
  %13 = alloca i32, align 4
  %14 = alloca i32, align 4
  store ptr %0, ptr %6, align 8
  store i32 %1, ptr %7, align 4
  store ptr %2, ptr %8, align 8
  store ptr %3, ptr %9, align 8
  store i32 %4, ptr %10, align 4
  call void @llvm.lifetime.start.p0(i64 4, ptr %11) #11
  call void @llvm.lifetime.start.p0(i64 4, ptr %12) #11
  call void @llvm.lifetime.start.p0(i64 4, ptr %13) #11
  store i32 0, ptr %13, align 4
  %15 = load ptr, ptr %9, align 8
  %16 = load i32, ptr @hf_x11_minor_opcode, align 4
  %17 = load ptr, ptr %6, align 8
  %18 = load ptr, ptr %8, align 8
  %19 = load i32, ptr %18, align 4
  %20 = call ptr (ptr, i32, ptr, i32, i32, i32, ptr, ...) @proto_tree_add_uint_format_value(ptr noundef %15, i32 noundef %16, ptr noundef %17, i32 noundef %19, i32 noundef 2, i32 noundef 2, ptr noundef @.str.15421)
  %21 = load ptr, ptr %6, align 8
  %22 = load ptr, ptr %8, align 8
  %23 = load ptr, ptr %9, align 8
  %24 = load i32, ptr @hf_x11_xinput_KeyPress_deviceid, align 4
  %25 = load i32, ptr %10, align 4
  %26 = call i32 @field16(ptr noundef %21, ptr noundef %22, ptr noundef %23, i32 noundef %24, i32 noundef %25)
  %27 = load ptr, ptr %6, align 8
  %28 = load ptr, ptr %8, align 8
  %29 = load ptr, ptr %9, align 8
  %30 = load i32, ptr @hf_x11_xinput_KeyPress_time, align 4
  %31 = load i32, ptr %10, align 4
  %32 = call i32 @field32(ptr noundef %27, ptr noundef %28, ptr noundef %29, i32 noundef %30, i32 noundef %31)
  %33 = load ptr, ptr %9, align 8
  %34 = load i32, ptr @hf_x11_xinput_KeyPress_detail, align 4
  %35 = load ptr, ptr %6, align 8
  %36 = load ptr, ptr %8, align 8
  %37 = load i32, ptr %36, align 4
  %38 = load i32, ptr %10, align 4
  %39 = call ptr @proto_tree_add_item(ptr noundef %33, i32 noundef %34, ptr noundef %35, i32 noundef %37, i32 noundef 4, i32 noundef %38)
  %40 = load ptr, ptr %8, align 8
  %41 = load i32, ptr %40, align 4
  %42 = add i32 %41, 4
  store i32 %42, ptr %40, align 4
  %43 = load ptr, ptr %9, align 8
  %44 = load i32, ptr @hf_x11_xinput_KeyPress_root, align 4
  %45 = load ptr, ptr %6, align 8
  %46 = load ptr, ptr %8, align 8
  %47 = load i32, ptr %46, align 4
  %48 = load i32, ptr %10, align 4
  %49 = call ptr @proto_tree_add_item(ptr noundef %43, i32 noundef %44, ptr noundef %45, i32 noundef %47, i32 noundef 4, i32 noundef %48)
  %50 = load ptr, ptr %8, align 8
  %51 = load i32, ptr %50, align 4
  %52 = add i32 %51, 4
  store i32 %52, ptr %50, align 4
  %53 = load ptr, ptr %9, align 8
  %54 = load i32, ptr @hf_x11_xinput_KeyPress_event, align 4
  %55 = load ptr, ptr %6, align 8
  %56 = load ptr, ptr %8, align 8
  %57 = load i32, ptr %56, align 4
  %58 = load i32, ptr %10, align 4
  %59 = call ptr @proto_tree_add_item(ptr noundef %53, i32 noundef %54, ptr noundef %55, i32 noundef %57, i32 noundef 4, i32 noundef %58)
  %60 = load ptr, ptr %8, align 8
  %61 = load i32, ptr %60, align 4
  %62 = add i32 %61, 4
  store i32 %62, ptr %60, align 4
  %63 = load ptr, ptr %9, align 8
  %64 = load i32, ptr @hf_x11_xinput_KeyPress_child, align 4
  %65 = load ptr, ptr %6, align 8
  %66 = load ptr, ptr %8, align 8
  %67 = load i32, ptr %66, align 4
  %68 = load i32, ptr %10, align 4
  %69 = call ptr @proto_tree_add_item(ptr noundef %63, i32 noundef %64, ptr noundef %65, i32 noundef %67, i32 noundef 4, i32 noundef %68)
  %70 = load ptr, ptr %8, align 8
  %71 = load i32, ptr %70, align 4
  %72 = add i32 %71, 4
  store i32 %72, ptr %70, align 4
  %73 = load ptr, ptr %9, align 8
  %74 = load i32, ptr @hf_x11_xinput_KeyPress_root_x, align 4
  %75 = load ptr, ptr %6, align 8
  %76 = load ptr, ptr %8, align 8
  %77 = load i32, ptr %76, align 4
  %78 = load i32, ptr %10, align 4
  %79 = call ptr @proto_tree_add_item(ptr noundef %73, i32 noundef %74, ptr noundef %75, i32 noundef %77, i32 noundef 4, i32 noundef %78)
  %80 = load ptr, ptr %8, align 8
  %81 = load i32, ptr %80, align 4
  %82 = add i32 %81, 4
  store i32 %82, ptr %80, align 4
  %83 = load ptr, ptr %9, align 8
  %84 = load i32, ptr @hf_x11_xinput_KeyPress_root_y, align 4
  %85 = load ptr, ptr %6, align 8
  %86 = load ptr, ptr %8, align 8
  %87 = load i32, ptr %86, align 4
  %88 = load i32, ptr %10, align 4
  %89 = call ptr @proto_tree_add_item(ptr noundef %83, i32 noundef %84, ptr noundef %85, i32 noundef %87, i32 noundef 4, i32 noundef %88)
  %90 = load ptr, ptr %8, align 8
  %91 = load i32, ptr %90, align 4
  %92 = add i32 %91, 4
  store i32 %92, ptr %90, align 4
  %93 = load ptr, ptr %9, align 8
  %94 = load i32, ptr @hf_x11_xinput_KeyPress_event_x, align 4
  %95 = load ptr, ptr %6, align 8
  %96 = load ptr, ptr %8, align 8
  %97 = load i32, ptr %96, align 4
  %98 = load i32, ptr %10, align 4
  %99 = call ptr @proto_tree_add_item(ptr noundef %93, i32 noundef %94, ptr noundef %95, i32 noundef %97, i32 noundef 4, i32 noundef %98)
  %100 = load ptr, ptr %8, align 8
  %101 = load i32, ptr %100, align 4
  %102 = add i32 %101, 4
  store i32 %102, ptr %100, align 4
  %103 = load ptr, ptr %9, align 8
  %104 = load i32, ptr @hf_x11_xinput_KeyPress_event_y, align 4
  %105 = load ptr, ptr %6, align 8
  %106 = load ptr, ptr %8, align 8
  %107 = load i32, ptr %106, align 4
  %108 = load i32, ptr %10, align 4
  %109 = call ptr @proto_tree_add_item(ptr noundef %103, i32 noundef %104, ptr noundef %105, i32 noundef %107, i32 noundef 4, i32 noundef %108)
  %110 = load ptr, ptr %8, align 8
  %111 = load i32, ptr %110, align 4
  %112 = add i32 %111, 4
  store i32 %112, ptr %110, align 4
  %113 = load ptr, ptr %6, align 8
  %114 = load ptr, ptr %8, align 8
  %115 = load i32, ptr %114, align 4
  %116 = load i32, ptr %10, align 4
  %117 = call zeroext i16 @tvb_get_uint16(ptr noundef %113, i32 noundef %115, i32 noundef %116)
  %118 = zext i16 %117 to i32
  store i32 %118, ptr %11, align 4
  %119 = load ptr, ptr %9, align 8
  %120 = load i32, ptr @hf_x11_xinput_KeyPress_buttons_len, align 4
  %121 = load ptr, ptr %6, align 8
  %122 = load ptr, ptr %8, align 8
  %123 = load i32, ptr %122, align 4
  %124 = load i32, ptr %10, align 4
  %125 = call ptr @proto_tree_add_item(ptr noundef %119, i32 noundef %120, ptr noundef %121, i32 noundef %123, i32 noundef 2, i32 noundef %124)
  %126 = load ptr, ptr %8, align 8
  %127 = load i32, ptr %126, align 4
  %128 = add i32 %127, 2
  store i32 %128, ptr %126, align 4
  %129 = load ptr, ptr %6, align 8
  %130 = load ptr, ptr %8, align 8
  %131 = load i32, ptr %130, align 4
  %132 = load i32, ptr %10, align 4
  %133 = call zeroext i16 @tvb_get_uint16(ptr noundef %129, i32 noundef %131, i32 noundef %132)
  %134 = zext i16 %133 to i32
  store i32 %134, ptr %12, align 4
  %135 = load ptr, ptr %9, align 8
  %136 = load i32, ptr @hf_x11_xinput_KeyPress_valuators_len, align 4
  %137 = load ptr, ptr %6, align 8
  %138 = load ptr, ptr %8, align 8
  %139 = load i32, ptr %138, align 4
  %140 = load i32, ptr %10, align 4
  %141 = call ptr @proto_tree_add_item(ptr noundef %135, i32 noundef %136, ptr noundef %137, i32 noundef %139, i32 noundef 2, i32 noundef %140)
  %142 = load ptr, ptr %8, align 8
  %143 = load i32, ptr %142, align 4
  %144 = add i32 %143, 2
  store i32 %144, ptr %142, align 4
  %145 = load ptr, ptr %6, align 8
  %146 = load ptr, ptr %8, align 8
  %147 = load ptr, ptr %9, align 8
  %148 = load i32, ptr @hf_x11_xinput_KeyPress_sourceid, align 4
  %149 = load i32, ptr %10, align 4
  %150 = call i32 @field16(ptr noundef %145, ptr noundef %146, ptr noundef %147, i32 noundef %148, i32 noundef %149)
  %151 = load ptr, ptr %9, align 8
  %152 = load i32, ptr @hf_x11_unused, align 4
  %153 = load ptr, ptr %6, align 8
  %154 = load ptr, ptr %8, align 8
  %155 = load i32, ptr %154, align 4
  %156 = call ptr @proto_tree_add_item(ptr noundef %151, i32 noundef %152, ptr noundef %153, i32 noundef %155, i32 noundef 2, i32 noundef 0)
  %157 = load ptr, ptr %8, align 8
  %158 = load i32, ptr %157, align 4
  %159 = add i32 %158, 2
  store i32 %159, ptr %157, align 4
  %160 = load ptr, ptr %9, align 8
  %161 = load ptr, ptr %6, align 8
  %162 = load ptr, ptr %8, align 8
  %163 = load i32, ptr %162, align 4
  %164 = load i32, ptr @hf_x11_xinput_KeyPress_flags, align 4
  %165 = load i32, ptr @ett_x11_rectangle, align 4
  %166 = load i32, ptr %10, align 4
  %167 = call ptr @proto_tree_add_bitmask(ptr noundef %160, ptr noundef %161, i32 noundef %163, i32 noundef %164, i32 noundef %165, ptr noundef @xinputKeyPress.flags_bits, i32 noundef %166)
  %168 = load ptr, ptr %8, align 8
  %169 = load i32, ptr %168, align 4
  %170 = add i32 %169, 4
  store i32 %170, ptr %168, align 4
  %171 = load ptr, ptr %6, align 8
  %172 = load ptr, ptr %8, align 8
  %173 = load ptr, ptr %9, align 8
  %174 = load i32, ptr %10, align 4
  call void @struct_xinput_ModifierInfo(ptr noundef %171, ptr noundef %172, ptr noundef %173, i32 noundef %174, i32 noundef 1)
  %175 = load ptr, ptr %6, align 8
  %176 = load ptr, ptr %8, align 8
  %177 = load ptr, ptr %9, align 8
  %178 = load i32, ptr %10, align 4
  call void @struct_xinput_GroupInfo(ptr noundef %175, ptr noundef %176, ptr noundef %177, i32 noundef %178, i32 noundef 1)
  %179 = load ptr, ptr %6, align 8
  %180 = load ptr, ptr %8, align 8
  %181 = load ptr, ptr %9, align 8
  %182 = load i32, ptr @hf_x11_xinput_KeyPress_button_mask, align 4
  %183 = load i32, ptr @hf_x11_xinput_KeyPress_button_mask_item, align 4
  %184 = load i32, ptr %11, align 4
  %185 = load i32, ptr %10, align 4
  call void @listOfCard32(ptr noundef %179, ptr noundef %180, ptr noundef %181, i32 noundef %182, i32 noundef %183, i32 noundef %184, i32 noundef %185)
  call void @llvm.lifetime.start.p0(i64 4, ptr %14) #11
  store i32 0, ptr %14, align 4
  br label %186

186:                                              ; preds = %201, %5
  %187 = load i32, ptr %14, align 4
  %188 = load i32, ptr %12, align 4
  %189 = icmp slt i32 %187, %188
  br i1 %189, label %190, label %204

190:                                              ; preds = %186
  %191 = load ptr, ptr %6, align 8
  %192 = load ptr, ptr %8, align 8
  %193 = load i32, ptr %192, align 4
  %194 = load i32, ptr %14, align 4
  %195 = mul i32 %194, 4
  %196 = add i32 %193, %195
  %197 = load i32, ptr %10, align 4
  %198 = call i32 @tvb_get_uint32(ptr noundef %191, i32 noundef %196, i32 noundef %197)
  %199 = load i32, ptr %13, align 4
  %200 = add i32 %199, %198
  store i32 %200, ptr %13, align 4
  br label %201

201:                                              ; preds = %190
  %202 = load i32, ptr %14, align 4
  %203 = add i32 %202, 1
  store i32 %203, ptr %14, align 4
  br label %186, !llvm.loop !126

204:                                              ; preds = %186
  call void @llvm.lifetime.end.p0(i64 4, ptr %14) #11
  %205 = load ptr, ptr %6, align 8
  %206 = load ptr, ptr %8, align 8
  %207 = load ptr, ptr %9, align 8
  %208 = load i32, ptr @hf_x11_xinput_KeyPress_valuator_mask, align 4
  %209 = load i32, ptr @hf_x11_xinput_KeyPress_valuator_mask_item, align 4
  %210 = load i32, ptr %12, align 4
  %211 = load i32, ptr %10, align 4
  call void @listOfCard32(ptr noundef %205, ptr noundef %206, ptr noundef %207, i32 noundef %208, i32 noundef %209, i32 noundef %210, i32 noundef %211)
  %212 = load ptr, ptr %6, align 8
  %213 = load ptr, ptr %8, align 8
  %214 = load ptr, ptr %9, align 8
  %215 = load i32, ptr %10, align 4
  %216 = load i32, ptr %13, align 4
  call void @struct_xinput_FP3232(ptr noundef %212, ptr noundef %213, ptr noundef %214, i32 noundef %215, i32 noundef %216)
  call void @llvm.lifetime.end.p0(i64 4, ptr %13) #11
  call void @llvm.lifetime.end.p0(i64 4, ptr %12) #11
  call void @llvm.lifetime.end.p0(i64 4, ptr %11) #11
  ret void
}