; Function Attrs: null_pointer_is_valid sspstrong uwtable
define internal void @xinputKeyPress(ptr noundef %0, i32 %1, ptr noundef captures(none) %2, ptr noundef %3, i32 noundef %4) #1 {
  %6 = load i32, ptr @hf_x11_minor_opcode, align 4
  %7 = load i32, ptr %2, align 4
  %8 = tail call ptr (ptr, i32, ptr, i32, i32, i32, ptr, ...) @proto_tree_add_uint_format_value(ptr noundef %3, i32 noundef %6, ptr noundef %0, i32 noundef %7, i32 noundef 2, i32 noundef 2, ptr noundef nonnull @.str.15421)
  %9 = load i32, ptr @hf_x11_xinput_KeyPress_deviceid, align 4
  %10 = tail call fastcc i32 @field16(ptr noundef %0, ptr noundef %2, ptr noundef %3, i32 noundef %9, i32 noundef %4)
  %11 = load i32, ptr @hf_x11_xinput_KeyPress_time, align 4
  %12 = tail call fastcc i32 @field32(ptr noundef %0, ptr noundef %2, ptr noundef %3, i32 noundef %11, i32 noundef %4)
  %13 = load i32, ptr @hf_x11_xinput_KeyPress_detail, align 4
  %14 = load i32, ptr %2, align 4
  %15 = tail call ptr @proto_tree_add_item(ptr noundef %3, i32 noundef %13, ptr noundef %0, i32 noundef %14, i32 noundef 4, i32 noundef %4)
  %16 = load i32, ptr %2, align 4
  %17 = add i32 %16, 4
  store i32 %17, ptr %2, align 4
  %18 = load i32, ptr @hf_x11_xinput_KeyPress_root, align 4
  %19 = tail call ptr @proto_tree_add_item(ptr noundef %3, i32 noundef %18, ptr noundef %0, i32 noundef %17, i32 noundef 4, i32 noundef %4)
  %20 = load i32, ptr %2, align 4
  %21 = add i32 %20, 4
  store i32 %21, ptr %2, align 4
  %22 = load i32, ptr @hf_x11_xinput_KeyPress_event, align 4
  %23 = tail call ptr @proto_tree_add_item(ptr noundef %3, i32 noundef %22, ptr noundef %0, i32 noundef %21, i32 noundef 4, i32 noundef %4)
  %24 = load i32, ptr %2, align 4
  %25 = add i32 %24, 4
  store i32 %25, ptr %2, align 4
  %26 = load i32, ptr @hf_x11_xinput_KeyPress_child, align 4
  %27 = tail call ptr @proto_tree_add_item(ptr noundef %3, i32 noundef %26, ptr noundef %0, i32 noundef %25, i32 noundef 4, i32 noundef %4)
  %28 = load i32, ptr %2, align 4
  %29 = add i32 %28, 4
  store i32 %29, ptr %2, align 4
  %30 = load i32, ptr @hf_x11_xinput_KeyPress_root_x, align 4
  %31 = tail call ptr @proto_tree_add_item(ptr noundef %3, i32 noundef %30, ptr noundef %0, i32 noundef %29, i32 noundef 4, i32 noundef %4)
  %32 = load i32, ptr %2, align 4
  %33 = add i32 %32, 4
  store i32 %33, ptr %2, align 4
  %34 = load i32, ptr @hf_x11_xinput_KeyPress_root_y, align 4
  %35 = tail call ptr @proto_tree_add_item(ptr noundef %3, i32 noundef %34, ptr noundef %0, i32 noundef %33, i32 noundef 4, i32 noundef %4)
  %36 = load i32, ptr %2, align 4
  %37 = add i32 %36, 4
  store i32 %37, ptr %2, align 4
  %38 = load i32, ptr @hf_x11_xinput_KeyPress_event_x, align 4
  %39 = tail call ptr @proto_tree_add_item(ptr noundef %3, i32 noundef %38, ptr noundef %0, i32 noundef %37, i32 noundef 4, i32 noundef %4)
  %40 = load i32, ptr %2, align 4
  %41 = add i32 %40, 4
  store i32 %41, ptr %2, align 4
  %42 = load i32, ptr @hf_x11_xinput_KeyPress_event_y, align 4
  %43 = tail call ptr @proto_tree_add_item(ptr noundef %3, i32 noundef %42, ptr noundef %0, i32 noundef %41, i32 noundef 4, i32 noundef %4)
  %44 = load i32, ptr %2, align 4
  %45 = add i32 %44, 4
  store i32 %45, ptr %2, align 4
  %46 = tail call zeroext i16 @tvb_get_uint16(ptr noundef %0, i32 noundef %45, i32 noundef %4)
  %47 = zext i16 %46 to i32
  %48 = load i32, ptr @hf_x11_xinput_KeyPress_buttons_len, align 4
  %49 = load i32, ptr %2, align 4
  %50 = tail call ptr @proto_tree_add_item(ptr noundef %3, i32 noundef %48, ptr noundef %0, i32 noundef %49, i32 noundef 2, i32 noundef %4)
  %51 = load i32, ptr %2, align 4
  %52 = add i32 %51, 2
  store i32 %52, ptr %2, align 4
  %53 = tail call zeroext i16 @tvb_get_uint16(ptr noundef %0, i32 noundef %52, i32 noundef %4)
  %54 = zext i16 %53 to i32
  %55 = load i32, ptr @hf_x11_xinput_KeyPress_valuators_len, align 4
  %56 = load i32, ptr %2, align 4
  %57 = tail call ptr @proto_tree_add_item(ptr noundef %3, i32 noundef %55, ptr noundef %0, i32 noundef %56, i32 noundef 2, i32 noundef %4)
  %58 = load i32, ptr %2, align 4
  %59 = add i32 %58, 2
  store i32 %59, ptr %2, align 4
  %60 = load i32, ptr @hf_x11_xinput_KeyPress_sourceid, align 4
  %61 = tail call fastcc i32 @field16(ptr noundef %0, ptr noundef %2, ptr noundef %3, i32 noundef %60, i32 noundef %4)
  %62 = load i32, ptr @hf_x11_unused, align 4
  %63 = load i32, ptr %2, align 4
  %64 = tail call ptr @proto_tree_add_item(ptr noundef %3, i32 noundef %62, ptr noundef %0, i32 noundef %63, i32 noundef 2, i32 noundef 0)
  %65 = load i32, ptr %2, align 4
  %66 = add i32 %65, 2
  store i32 %66, ptr %2, align 4
  %67 = load i32, ptr @hf_x11_xinput_KeyPress_flags, align 4
  %68 = load i32, ptr @ett_x11_rectangle, align 4
  %69 = tail call ptr @proto_tree_add_bitmask(ptr noundef %3, ptr noundef %0, i32 noundef %66, i32 noundef %67, i32 noundef %68, ptr noundef nonnull @xinputKeyPress.flags_bits, i32 noundef %4)
  %70 = load i32, ptr %2, align 4
  %71 = add i32 %70, 4
  store i32 %71, ptr %2, align 4
  tail call fastcc void @struct_xinput_ModifierInfo(ptr noundef %0, ptr noundef %2, ptr noundef %3, i32 noundef %4)
  tail call fastcc void @struct_xinput_GroupInfo(ptr noundef %0, ptr noundef %2, ptr noundef %3, i32 noundef %4)
  %72 = load i32, ptr @hf_x11_xinput_KeyPress_button_mask, align 4
  %73 = load i32, ptr @hf_x11_xinput_KeyPress_button_mask_item, align 4
  %74 = load i32, ptr %2, align 4
  %75 = shl nuw nsw i32 %47, 2
  %76 = tail call ptr @proto_tree_add_item(ptr noundef %3, i32 noundef %72, ptr noundef %0, i32 noundef %74, i32 noundef %75, i32 noundef %4)
  %77 = load i32, ptr @ett_x11_list_of_card32, align 4
  %78 = tail call ptr @proto_item_add_subtree(ptr noundef %76, i32 noundef %77)
  %.not13.i = icmp eq i16 %46, 0
  br i1 %.not13.i, label %listOfCard32.exit, label %.lr.ph.preheader.i

.lr.ph.preheader.i:                               ; preds = %5
  %.pre.i = load i32, ptr %2, align 4
  br label %.lr.ph.i

.lr.ph.i:                                         ; preds = %.lr.ph.i, %.lr.ph.preheader.i
  %79 = phi i32 [ %83, %.lr.ph.i ], [ %.pre.i, %.lr.ph.preheader.i ]
  %.014.i = phi i32 [ %80, %.lr.ph.i ], [ %47, %.lr.ph.preheader.i ]
  %80 = add nsw i32 %.014.i, -1
  %81 = tail call ptr @proto_tree_add_item(ptr noundef %78, i32 noundef %73, ptr noundef %0, i32 noundef %79, i32 noundef 4, i32 noundef %4)
  %82 = load i32, ptr %2, align 4
  %83 = add i32 %82, 4
  store i32 %83, ptr %2, align 4
  %.not.i = icmp eq i32 %80, 0
  br i1 %.not.i, label %listOfCard32.exit, label %.lr.ph.i, !llvm.loop !44

listOfCard32.exit:                                ; preds = %.lr.ph.i, %5
  %.not = icmp eq i16 %53, 0
  br i1 %.not, label %._crit_edge, label %.lr.ph

.lr.ph:                                           ; preds = %listOfCard32.exit, %.lr.ph
  %.0120 = phi i32 [ %89, %.lr.ph ], [ 0, %listOfCard32.exit ]
  %.0110119 = phi i32 [ %88, %.lr.ph ], [ 0, %listOfCard32.exit ]
  %84 = load i32, ptr %2, align 4
  %85 = shl i32 %.0120, 2
  %86 = add i32 %84, %85
  %87 = tail call i32 @tvb_get_uint32(ptr noundef %0, i32 noundef %86, i32 noundef %4)
  %88 = add i32 %87, %.0110119
  %89 = add nuw nsw i32 %.0120, 1
  %exitcond.not = icmp eq i32 %89, %54
  br i1 %exitcond.not, label %._crit_edge, label %.lr.ph, !llvm.loop !103

._crit_edge:                                      ; preds = %.lr.ph, %listOfCard32.exit
  %.0110.lcssa = phi i32 [ 0, %listOfCard32.exit ], [ %88, %.lr.ph ]
  %90 = load i32, ptr @hf_x11_xinput_KeyPress_valuator_mask, align 4
  %91 = load i32, ptr @hf_x11_xinput_KeyPress_valuator_mask_item, align 4
  %92 = load i32, ptr %2, align 4
  %93 = shl nuw nsw i32 %54, 2
  %94 = tail call ptr @proto_tree_add_item(ptr noundef %3, i32 noundef %90, ptr noundef %0, i32 noundef %92, i32 noundef %93, i32 noundef %4)
  %95 = load i32, ptr @ett_x11_list_of_card32, align 4
  %96 = tail call ptr @proto_item_add_subtree(ptr noundef %94, i32 noundef %95)
  br i1 %.not, label %listOfCard32.exit118, label %.lr.ph.preheader.i113

.lr.ph.preheader.i113:                            ; preds = %._crit_edge
  %.pre.i114 = load i32, ptr %2, align 4
  br label %.lr.ph.i115

.lr.ph.i115:                                      ; preds = %.lr.ph.i115, %.lr.ph.preheader.i113
  %97 = phi i32 [ %101, %.lr.ph.i115 ], [ %.pre.i114, %.lr.ph.preheader.i113 ]
  %.014.i116 = phi i32 [ %98, %.lr.ph.i115 ], [ %54, %.lr.ph.preheader.i113 ]
  %98 = add nsw i32 %.014.i116, -1
  %99 = tail call ptr @proto_tree_add_item(ptr noundef %96, i32 noundef %91, ptr noundef %0, i32 noundef %97, i32 noundef 4, i32 noundef %4)
  %100 = load i32, ptr %2, align 4
  %101 = add i32 %100, 4
  store i32 %101, ptr %2, align 4
  %.not.i117 = icmp eq i32 %98, 0
  br i1 %.not.i117, label %listOfCard32.exit118, label %.lr.ph.i115, !llvm.loop !44

listOfCard32.exit118:                             ; preds = %.lr.ph.i115, %._crit_edge
  tail call fastcc void @struct_xinput_FP3232(ptr noundef %0, ptr noundef %2, ptr noundef %3, i32 noundef %4, i32 noundef %.0110.lcssa)
  ret void
}